target datalayout = "e-m:e-p270:32:32-p271:32:32-p272:64:64-i64:64-i128:128-f80:128-n8:16:32:64-S128"
target triple = "x86_64-pc-linux-gnu"

%class.MutualInfo = type { i32, i8, i32, ptr, ptr, ptr }

; Function Attrs: mustprogress uwtable
define noundef double @_ZN10MutualInfo4infoEiiPhS0_iiii(ptr noundef nonnull align 8 dereferenceable(40) %0, i32 noundef %1, i32 noundef %2, ptr noundef %3, ptr noundef %4, i32 noundef %5, i32 noundef %6, i32 noundef %7, i32 noundef %8) #4 align 2 {
  %10 = alloca ptr, align 8
  %11 = alloca i32, align 4
  %12 = alloca i32, align 4
  %13 = alloca ptr, align 8
  %14 = alloca ptr, align 8
  %15 = alloca i32, align 4
  %16 = alloca i32, align 4
  %17 = alloca i32, align 4
  %18 = alloca i32, align 4
  %19 = alloca double, align 8
  %20 = alloca i32, align 4
  %21 = alloca i32, align 4
  %22 = alloca ptr, align 8
  %23 = alloca i32, align 4
  %24 = alloca i32, align 4
  %25 = alloca double, align 8
  %26 = alloca double, align 8
  %27 = alloca i32, align 4
  %28 = alloca double, align 8
  %29 = alloca i32, align 4
  %30 = alloca double, align 8
  %31 = alloca double, align 8
  store ptr %0, ptr %10, align 8
  store i32 %1, ptr %11, align 4
  store i32 %2, ptr %12, align 4
  store ptr %3, ptr %13, align 8
  store ptr %4, ptr %14, align 8
  store i32 %5, ptr %15, align 4
  store i32 %6, ptr %16, align 4
  store i32 %7, ptr %17, align 4
  store i32 %8, ptr %18, align 4
  %32 = load ptr, ptr %10, align 8
  %33 = load i32, ptr %11, align 4
  %34 = load i32, ptr %12, align 4
  %35 = load ptr, ptr %13, align 8
  %36 = load ptr, ptr %14, align 8
  %37 = load i32, ptr %15, align 4
  %38 = load i32, ptr %16, align 4
  %39 = load i32, ptr %17, align 4
  %40 = load i32, ptr %18, align 4
  call void @_ZN10MutualInfo9histogramEiiPhS0_iiii(ptr noundef nonnull align 8 dereferenceable(40) %32, i32 noundef %33, i32 noundef %34, ptr noundef %35, ptr noundef %36, i32 noundef %37, i32 noundef %38, i32 noundef %39, i32 noundef %40)
  %41 = getelementptr inbounds %class.MutualInfo, ptr %32, i32 0, i32 4
  %42 = load ptr, ptr %41, align 8
  %43 = getelementptr inbounds %class.MutualInfo, ptr %32, i32 0, i32 2
  %44 = load i32, ptr %43, align 8
  %45 = zext i32 %44 to i64
  %46 = mul i64 %45, 4
  call void @llvm.memset.p0.i64(ptr align 4 %42, i8 0, i64 %46, i1 false)
  %47 = getelementptr inbounds %class.MutualInfo, ptr %32, i32 0, i32 5
  %48 = load ptr, ptr %47, align 8
  %49 = getelementptr inbounds %class.MutualInfo, ptr %32, i32 0, i32 2
  %50 = load i32, ptr %49, align 8
  %51 = zext i32 %50 to i64
  %52 = mul i64 %51, 4
  call void @llvm.memset.p0.i64(ptr align 4 %48, i8 0, i64 %52, i1 false)
  store double 0.000000e+00, ptr %19, align 8
  store i32 0, ptr %20, align 4
  store i32 0, ptr %21, align 4
  br label %53

53:                                               ; preds = %98, %9
  %54 = load i32, ptr %21, align 4
  %55 = getelementptr inbounds %class.MutualInfo, ptr %32, i32 0, i32 2
  %56 = load i32, ptr %55, align 8
  %57 = icmp ult i32 %54, %56
  br i1 %57, label %58, label %101

58:                                               ; preds = %53
  %59 = getelementptr inbounds %class.MutualInfo, ptr %32, i32 0, i32 5
  %60 = load ptr, ptr %59, align 8
  %61 = load i32, ptr %21, align 4
  %62 = zext i32 %61 to i64
  %63 = getelementptr inbounds i32, ptr %60, i64 %62
  store ptr %63, ptr %22, align 8
  store i32 0, ptr %23, align 4
  br label %64

64:                                               ; preds = %89, %58
  %65 = load i32, ptr %23, align 4
  %66 = getelementptr inbounds %class.MutualInfo, ptr %32, i32 0, i32 2
  %67 = load i32, ptr %66, align 8
  %68 = icmp ult i32 %65, %67
  br i1 %68, label %69, label %92

69:                                               ; preds = %64
  %70 = getelementptr inbounds %class.MutualInfo, ptr %32, i32 0, i32 3
  %71 = load ptr, ptr %70, align 8
  %72 = load i32, ptr %20, align 4
  %73 = add nsw i32 %72, 1
  store i32 %73, ptr %20, align 4
  %74 = sext i32 %72 to i64
  %75 = getelementptr inbounds i32, ptr %71, i64 %74
  %76 = load i32, ptr %75, align 4
  store i32 %76, ptr %24, align 4
  %77 = load i32, ptr %24, align 4
  %78 = getelementptr inbounds %class.MutualInfo, ptr %32, i32 0, i32 4
  %79 = load ptr, ptr %78, align 8
  %80 = load i32, ptr %23, align 4
  %81 = zext i32 %80 to i64
  %82 = getelementptr inbounds i32, ptr %79, i64 %81
  %83 = load i32, ptr %82, align 4
  %84 = add i32 %83, %77
  store i32 %84, ptr %82, align 4
  %85 = load i32, ptr %24, align 4
  %86 = load ptr, ptr %22, align 8
  %87 = load i32, ptr %86, align 4
  %88 = add i32 %87, %85
  store i32 %88, ptr %86, align 4
  br label %89

89:                                               ; preds = %69
  %90 = load i32, ptr %23, align 4
  %91 = add i32 %90, 1
  store i32 %91, ptr %23, align 4
  br label %64, !llvm.loop !5

92:                                               ; preds = %64
  %93 = load ptr, ptr %22, align 8
  %94 = load i32, ptr %93, align 4
  %95 = uitofp i32 %94 to double
  %96 = load double, ptr %19, align 8
  %97 = fadd double %96, %95
  store double %97, ptr %19, align 8
  br label %98

98:                                               ; preds = %92
  %99 = load i32, ptr %21, align 4
  %100 = add i32 %99, 1
  store i32 %100, ptr %21, align 4
  br label %53, !llvm.loop !7

101:                                              ; preds = %53
  %102 = call double @log(double noundef 2.000000e+00) #3
  %103 = fdiv double 1.000000e+00, %102
  store double %103, ptr %25, align 8
  %104 = load double, ptr %19, align 8
  %105 = fcmp oeq double %104, 0.000000e+00
  br i1 %105, label %106, label %107

106:                                              ; preds = %101
  store double 1.000000e+00, ptr %19, align 8
  br label %107

107:                                              ; preds = %106, %101
  store double 0.000000e+00, ptr %26, align 8
  store i32 0, ptr %27, align 4
  br label %108

108:                                              ; preds = %171, %107
  %109 = load i32, ptr %27, align 4
  %110 = getelementptr inbounds %class.MutualInfo, ptr %32, i32 0, i32 2
  %111 = load i32, ptr %110, align 8
  %112 = icmp ult i32 %109, %111
  br i1 %112, label %113, label %174

113:                                              ; preds = %108
  %114 = getelementptr inbounds %class.MutualInfo, ptr %32, i32 0, i32 5
  %115 = load ptr, ptr %114, align 8
  %116 = load i32, ptr %27, align 4
  %117 = zext i32 %116 to i64
  %118 = getelementptr inbounds i32, ptr %115, i64 %117
  %119 = load i32, ptr %118, align 4
  %120 = uitofp i32 %119 to double
  store double %120, ptr %28, align 8
  %121 = load double, ptr %28, align 8
  %122 = fcmp oeq double %121, 0.000000e+00
  br i1 %122, label %123, label %124

123:                                              ; preds = %113
  br label %171

124:                                              ; preds = %113
  store i32 0, ptr %29, align 4
  br label %125

125:                                              ; preds = %167, %124
  %126 = load i32, ptr %29, align 4
  %127 = getelementptr inbounds %class.MutualInfo, ptr %32, i32 0, i32 2
  %128 = load i32, ptr %127, align 8
  %129 = icmp ult i32 %126, %128
  br i1 %129, label %130, label %170

130:                                              ; preds = %125
  %131 = getelementptr inbounds %class.MutualInfo, ptr %32, i32 0, i32 3
  %132 = load ptr, ptr %131, align 8
  %133 = load i32, ptr %29, align 4
  %134 = getelementptr inbounds %class.MutualInfo, ptr %32, i32 0, i32 2
  %135 = load i32, ptr %134, align 8
  %136 = load i32, ptr %27, align 4
  %137 = mul i32 %135, %136
  %138 = add i32 %133, %137
  %139 = zext i32 %138 to i64
  %140 = getelementptr inbounds i32, ptr %132, i64 %139
  %141 = load i32, ptr %140, align 4
  %142 = uitofp i32 %141 to double
  store double %142, ptr %30, align 8
  %143 = load double, ptr %30, align 8
  %144 = fcmp oeq double %143, 0.000000e+00
  br i1 %144, label %145, label %146

145:                                              ; preds = %130
  br label %167

146:                                              ; preds = %130
  %147 = getelementptr inbounds %class.MutualInfo, ptr %32, i32 0, i32 4
  %148 = load ptr, ptr %147, align 8
  %149 = load i32, ptr %29, align 4
  %150 = zext i32 %149 to i64
  %151 = getelementptr inbounds i32, ptr %148, i64 %150
  %152 = load i32, ptr %151, align 4
  %153 = uitofp i32 %152 to double
  store double %153, ptr %31, align 8
  %154 = load double, ptr %30, align 8
  %155 = load double, ptr %19, align 8
  %156 = load double, ptr %30, align 8
  %157 = fmul double %155, %156
  %158 = load double, ptr %31, align 8
  %159 = load double, ptr %28, align 8
  %160 = fmul double %158, %159
  %161 = fdiv double %157, %160
  %162 = call double @log(double noundef %161) #3
  %163 = fmul double %154, %162
  %164 = load double, ptr %25, align 8
  %165 = load double, ptr %26, align 8
  %166 = call double @llvm.fmuladd.f64(double %163, double %164, double %165)
  store double %166, ptr %26, align 8
  br label %167

167:                                              ; preds = %146, %145
  %168 = load i32, ptr %29, align 4
  %169 = add i32 %168, 1
  store i32 %169, ptr %29, align 4
  br label %125, !llvm.loop !8

170:                                              ; preds = %125
  br label %171

171:                                              ; preds = %170, %123
  %172 = load i32, ptr %27, align 4
  %173 = add i32 %172, 1
  store i32 %173, ptr %27, align 4
  br label %108, !llvm.loop !9

174:                                              ; preds = %108
  %175 = load double, ptr %19, align 8
  %176 = load double, ptr %26, align 8
  %177 = fdiv double %176, %175
  store double %177, ptr %26, align 8
  %178 = load double, ptr %26, align 8
  ret double %178
}