; Function Attrs: mustprogress nofree nounwind memory(readwrite, inaccessiblemem: write) uwtable
define noundef double @_ZN10MutualInfo4infoEiiPhS0_iiii(ptr noundef nonnull readonly align 8 captures(none) dereferenceable(40) %0, i32 noundef %1, i32 noundef %2, ptr noundef readonly captures(none) %3, ptr noundef readonly captures(none) %4, i32 noundef %5, i32 noundef %6, i32 noundef %7, i32 noundef %8) local_unnamed_addr #7 align 2 {
  tail call void @_ZN10MutualInfo9histogramEiiPhS0_iiii(ptr noundef nonnull align 8 dereferenceable(40) %0, i32 noundef %1, i32 noundef %2, ptr noundef %3, ptr noundef %4, i32 noundef %5, i32 noundef %6, i32 noundef %7, i32 noundef %8)
  %10 = getelementptr inbounds nuw i8, ptr %0, i64 24
  %11 = load ptr, ptr %10, align 8
  %12 = getelementptr inbounds nuw i8, ptr %0, i64 8
  %13 = load i32, ptr %12, align 8
  %14 = zext i32 %13 to i64
  %15 = shl nuw nsw i64 %14, 2
  tail call void @llvm.memset.p0.i64(ptr align 4 %11, i8 0, i64 %15, i1 false)
  %16 = getelementptr inbounds nuw i8, ptr %0, i64 32
  %17 = load ptr, ptr %16, align 8
  %18 = load i32, ptr %12, align 8
  %19 = zext i32 %18 to i64
  %20 = shl nuw nsw i64 %19, 2
  tail call void @llvm.memset.p0.i64(ptr align 4 %17, i8 0, i64 %20, i1 false)
  %21 = load i32, ptr %12, align 8
  %.not = icmp eq i32 %21, 0
  br i1 %.not, label %._crit_edge69, label %.lr.ph58.split.preheader

.lr.ph58.split.preheader:                         ; preds = %9
  %22 = getelementptr inbounds nuw i8, ptr %0, i64 16
  br label %.lr.ph58.split

.lr.ph58.split:                                   ; preds = %.lr.ph58.split.preheader, %._crit_edge
  %23 = phi i32 [ 1, %.lr.ph58.split.preheader ], [ %40, %._crit_edge ]
  %indvars.iv83 = phi i64 [ 0, %.lr.ph58.split.preheader ], [ %indvars.iv.next84, %._crit_edge ]
  %.056 = phi double [ 0.000000e+00, %.lr.ph58.split.preheader ], [ %43, %._crit_edge ]
  %.04155 = phi i32 [ 0, %.lr.ph58.split.preheader ], [ %.142.lcssa, %._crit_edge ]
  %24 = load ptr, ptr %16, align 8
  %25 = getelementptr inbounds nuw i32, ptr %24, i64 %indvars.iv83
  %.not73 = icmp eq i32 %23, 0
  br i1 %.not73, label %.lr.ph58.split.._crit_edge_crit_edge, label %.lr.ph.preheader

.lr.ph58.split.._crit_edge_crit_edge:             ; preds = %.lr.ph58.split
  %.pre = load i32, ptr %25, align 4
  br label %._crit_edge

.lr.ph.preheader:                                 ; preds = %.lr.ph58.split
  %26 = sext i32 %.04155 to i64
  br label %.lr.ph

.lr.ph:                                           ; preds = %.lr.ph.preheader, %.lr.ph
  %indvars.iv78 = phi i64 [ 0, %.lr.ph.preheader ], [ %indvars.iv.next79, %.lr.ph ]
  %indvars.iv = phi i64 [ %26, %.lr.ph.preheader ], [ %indvars.iv.next, %.lr.ph ]
  %27 = load ptr, ptr %22, align 8
  %indvars.iv.next = add nsw i64 %indvars.iv, 1
  %28 = getelementptr inbounds i32, ptr %27, i64 %indvars.iv
  %29 = load i32, ptr %28, align 4
  %30 = load ptr, ptr %10, align 8
  %31 = getelementptr inbounds nuw i32, ptr %30, i64 %indvars.iv78
  %32 = load i32, ptr %31, align 4
  %33 = add i32 %32, %29
  store i32 %33, ptr %31, align 4
  %34 = load i32, ptr %25, align 4
  %35 = add i32 %34, %29
  store i32 %35, ptr %25, align 4
  %indvars.iv.next79 = add nuw nsw i64 %indvars.iv78, 1
  %36 = load i32, ptr %12, align 8
  %37 = zext i32 %36 to i64
  %38 = icmp samesign ult i64 %indvars.iv.next79, %37
  br i1 %38, label %.lr.ph, label %._crit_edge.loopexit, !llvm.loop !5

._crit_edge.loopexit:                             ; preds = %.lr.ph
  %39 = trunc nsw i64 %indvars.iv.next to i32
  br label %._crit_edge

._crit_edge:                                      ; preds = %.lr.ph58.split.._crit_edge_crit_edge, %._crit_edge.loopexit
  %40 = phi i32 [ 0, %.lr.ph58.split.._crit_edge_crit_edge ], [ %36, %._crit_edge.loopexit ]
  %41 = phi i32 [ %.pre, %.lr.ph58.split.._crit_edge_crit_edge ], [ %35, %._crit_edge.loopexit ]
  %.142.lcssa = phi i32 [ %.04155, %.lr.ph58.split.._crit_edge_crit_edge ], [ %39, %._crit_edge.loopexit ]
  %42 = uitofp i32 %41 to double
  %43 = fadd double %.056, %42
  %indvars.iv.next84 = add nuw nsw i64 %indvars.iv83, 1
  %44 = zext i32 %40 to i64
  %45 = icmp samesign ult i64 %indvars.iv.next84, %44
  br i1 %45, label %.lr.ph58.split, label %._crit_edge59, !llvm.loop !7

._crit_edge59:                                    ; preds = %._crit_edge
  %46 = fcmp oeq double %43, 0.000000e+00
  %.1 = select i1 %46, double 1.000000e+00, double %43
  %.not74 = icmp eq i32 %40, 0
  br i1 %.not74, label %._crit_edge69, label %.lr.ph68

.lr.ph68:                                         ; preds = %._crit_edge59
  %47 = getelementptr inbounds nuw i8, ptr %0, i64 16
  br label %48

48:                                               ; preds = %.lr.ph68, %.loopexit
  %49 = phi i32 [ %40, %.lr.ph68 ], [ %84, %.loopexit ]
  %indvars.iv92 = phi i64 [ 0, %.lr.ph68 ], [ %indvars.iv.next93, %.loopexit ]
  %.04665 = phi double [ 0.000000e+00, %.lr.ph68 ], [ %.147, %.loopexit ]
  %50 = load ptr, ptr %16, align 8
  %51 = getelementptr inbounds nuw i32, ptr %50, i64 %indvars.iv92
  %52 = load i32, ptr %51, align 4
  %53 = uitofp i32 %52 to double
  %54 = icmp ne i32 %52, 0
  %55 = icmp ne i32 %49, 0
  %or.cond = and i1 %54, %55
  br i1 %or.cond, label %.lr.ph63.preheader, label %.loopexit

.lr.ph63.preheader:                               ; preds = %48
  %56 = trunc nuw i64 %indvars.iv92 to i32
  br label %.lr.ph63

.lr.ph63:                                         ; preds = %.lr.ph63.preheader, %79
  %57 = phi i32 [ %49, %.lr.ph63.preheader ], [ %80, %79 ]
  %58 = phi i32 [ %49, %.lr.ph63.preheader ], [ %81, %79 ]
  %indvars.iv89 = phi i64 [ 0, %.lr.ph63.preheader ], [ %indvars.iv.next90, %79 ]
  %.261 = phi double [ %.04665, %.lr.ph63.preheader ], [ %.3, %79 ]
  %59 = load ptr, ptr %47, align 8
  %60 = mul i32 %58, %56
  %61 = trunc nuw i64 %indvars.iv89 to i32
  %62 = add i32 %60, %61
  %63 = zext i32 %62 to i64
  %64 = getelementptr inbounds nuw i32, ptr %59, i64 %63
  %65 = load i32, ptr %64, align 4
  %66 = icmp eq i32 %65, 0
  br i1 %66, label %79, label %67

67:                                               ; preds = %.lr.ph63
  %68 = uitofp i32 %65 to double
  %69 = load ptr, ptr %10, align 8
  %70 = getelementptr inbounds nuw i32, ptr %69, i64 %indvars.iv89
  %71 = load i32, ptr %70, align 4
  %72 = uitofp i32 %71 to double
  %73 = fmul double %.1, %68
  %74 = fmul double %53, %72
  %75 = fdiv double %73, %74
  %76 = tail call double @log(double noundef %75) #15
  %77 = fmul double %76, %68
  %78 = tail call double @llvm.fmuladd.f64(double %77, double 0x3FF71547652B82FE, double %.261)
  %.pre95 = load i32, ptr %12, align 8
  br label %79

79:                                               ; preds = %.lr.ph63, %67
  %80 = phi i32 [ %57, %.lr.ph63 ], [ %.pre95, %67 ]
  %81 = phi i32 [ %58, %.lr.ph63 ], [ %.pre95, %67 ]
  %.3 = phi double [ %.261, %.lr.ph63 ], [ %78, %67 ]
  %indvars.iv.next90 = add nuw nsw i64 %indvars.iv89, 1
  %82 = zext i32 %81 to i64
  %83 = icmp samesign ult i64 %indvars.iv.next90, %82
  br i1 %83, label %.lr.ph63, label %.loopexit, !llvm.loop !9

.loopexit:                                        ; preds = %79, %48
  %84 = phi i32 [ %49, %48 ], [ %80, %79 ]
  %.147 = phi double [ %.04665, %48 ], [ %.3, %79 ]
  %indvars.iv.next93 = add nuw nsw i64 %indvars.iv92, 1
  %85 = zext i32 %84 to i64
  %86 = icmp samesign ult i64 %indvars.iv.next93, %85
  br i1 %86, label %48, label %._crit_edge69, !llvm.loop !10

._crit_edge69:                                    ; preds = %.loopexit, %9, %._crit_edge59
  %.199 = phi double [ %.1, %._crit_edge59 ], [ 1.000000e+00, %9 ], [ %.1, %.loopexit ]
  %.046.lcssa = phi double [ 0.000000e+00, %._crit_edge59 ], [ 0.000000e+00, %9 ], [ %.147, %.loopexit ]
  %87 = fdiv double %.046.lcssa, %.199
  ret double %87
}